; Function Attrs: nounwind uwtable
define internal void @counter_thread(ptr noundef %0) #0 {
  %2 = load ptr, ptr %0, align 8, !tbaa !13
  %3 = getelementptr inbounds nuw i8, ptr %2, i64 8
  br label %6

4:                                                ; preds = %_PyMutex_Unlock.exit
  %5 = getelementptr inbounds nuw i8, ptr %0, i64 8
  tail call void @_PyEvent_Notify(ptr noundef nonnull %5) #6
  ret void

6:                                                ; preds = %1, %_PyMutex_Unlock.exit
  %.07 = phi i64 [ 0, %1 ], [ %15, %_PyMutex_Unlock.exit ]
  %7 = cmpxchg ptr %2, i8 0, i8 1 seq_cst seq_cst, align 1
  %8 = extractvalue { i8, i1 } %7, 1
  br i1 %8, label %_PyMutex_Lock.exit, label %9

9:                                                ; preds = %6
  tail call void @PyMutex_Lock(ptr noundef %2) #6
  br label %_PyMutex_Lock.exit

_PyMutex_Lock.exit:                               ; preds = %6, %9
  %10 = load i64, ptr %3, align 8, !tbaa !18
  %11 = add i64 %10, 1
  store i64 %11, ptr %3, align 8, !tbaa !18
  %12 = cmpxchg ptr %2, i8 1, i8 0 seq_cst seq_cst, align 1
  %13 = extractvalue { i8, i1 } %12, 1
  br i1 %13, label %_PyMutex_Unlock.exit, label %14

14:                                               ; preds = %_PyMutex_Lock.exit
  tail call void @PyMutex_Unlock(ptr noundef nonnull %2) #6
  br label %_PyMutex_Unlock.exit

_PyMutex_Unlock.exit:                             ; preds = %_PyMutex_Lock.exit, %14
  %15 = add nuw nsw i64 %.07, 1
  %exitcond.not = icmp eq i64 %15, 10000
  br i1 %exitcond.not, label %4, label %6, !llvm.loop !37
}